target datalayout = "e-m:e-p270:32:32-p271:32:32-p272:64:64-i64:64-i128:128-f80:128-n8:16:32:64-S128"
target triple = "x86_64-pc-linux-gnu"

%"class.o3dgc::Arithmetic_Codec" = type <{ ptr, ptr, ptr, i32, i32, i32, i32, i32, [4 x i8] }>

@.str.8 = private unnamed_addr constant [37 x i8] c"cannot write compressed data to file\00", align 1

; Function Attrs: mustprogress uwtable
define hidden noundef i32 @_ZN5o3dgc16Arithmetic_Codec13write_to_fileEP8_IO_FILE(ptr noundef nonnull align 8 dereferenceable(44) %0, ptr noundef %1) #0 align 2 {
  %3 = alloca ptr, align 8
  %4 = alloca ptr, align 8
  %5 = alloca i32, align 4
  %6 = alloca i32, align 4
  %7 = alloca i32, align 4
  %8 = alloca i32, align 4
  store ptr %0, ptr %3, align 8
  store ptr %1, ptr %4, align 8
  %9 = load ptr, ptr %3, align 8
  call void @llvm.lifetime.start.p0(i64 4, ptr %5) #12
  store i32 0, ptr %5, align 4
  call void @llvm.lifetime.start.p0(i64 4, ptr %6) #12
  %10 = call noundef i32 @_ZN5o3dgc16Arithmetic_Codec12stop_encoderEv(ptr noundef nonnull align 8 dereferenceable(44) %9)
  store i32 %10, ptr %6, align 4
  call void @llvm.lifetime.start.p0(i64 4, ptr %7) #12
  %11 = load i32, ptr %6, align 4
  store i32 %11, ptr %7, align 4
  br label %12

12:                                               ; preds = %30, %2
  call void @llvm.lifetime.start.p0(i64 4, ptr %8) #12
  %13 = load i32, ptr %7, align 4
  %14 = and i32 %13, 127
  store i32 %14, ptr %8, align 4
  %15 = load i32, ptr %7, align 4
  %16 = lshr i32 %15, 7
  store i32 %16, ptr %7, align 4
  %17 = icmp ugt i32 %16, 0
  br i1 %17, label %18, label %21

18:                                               ; preds = %12
  %19 = load i32, ptr %8, align 4
  %20 = or i32 %19, 128
  store i32 %20, ptr %8, align 4
  br label %21

21:                                               ; preds = %18, %12
  %22 = load i32, ptr %8, align 4
  %23 = load ptr, ptr %4, align 8
  %24 = call i32 @putc(i32 noundef %22, ptr noundef %23)
  %25 = icmp eq i32 %24, -1
  br i1 %25, label %26, label %27

26:                                               ; preds = %21
  call void @_ZN5o3dgcL8AC_ErrorEPKc(ptr noundef @.str.8) #13
  unreachable

27:                                               ; preds = %21
  %28 = load i32, ptr %5, align 4
  %29 = add i32 %28, 1
  store i32 %29, ptr %5, align 4
  call void @llvm.lifetime.end.p0(i64 4, ptr %8) #12
  br label %30

30:                                               ; preds = %27
  %31 = load i32, ptr %7, align 4
  %32 = icmp ne i32 %31, 0
  br i1 %32, label %12, label %33, !llvm.loop !19

33:                                               ; preds = %30
  %34 = getelementptr inbounds nuw %"class.o3dgc::Arithmetic_Codec", ptr %9, i32 0, i32 0
  %35 = load ptr, ptr %34, align 8
  %36 = load i32, ptr %6, align 4
  %37 = zext i32 %36 to i64
  %38 = load ptr, ptr %4, align 8
  %39 = call i64 @fwrite(ptr noundef %35, i64 noundef 1, i64 noundef %37, ptr noundef %38)
  %40 = load i32, ptr %6, align 4
  %41 = zext i32 %40 to i64
  %42 = icmp ne i64 %39, %41
  br i1 %42, label %43, label %44

43:                                               ; preds = %33
  call void @_ZN5o3dgcL8AC_ErrorEPKc(ptr noundef @.str.8) #13
  unreachable

44:                                               ; preds = %33
  %45 = load i32, ptr %6, align 4
  %46 = load i32, ptr %5, align 4
  %47 = add i32 %45, %46
  call void @llvm.lifetime.end.p0(i64 4, ptr %7) #12
  call void @llvm.lifetime.end.p0(i64 4, ptr %6) #12
  call void @llvm.lifetime.end.p0(i64 4, ptr %5) #12
  ret i32 %47
}