; Function Attrs: mustprogress uwtable
define hidden noundef i32 @_ZN5o3dgc16Arithmetic_Codec13write_to_fileEP8_IO_FILE(ptr noundef nonnull align 8 captures(none) dereferenceable(44) %0, ptr noundef captures(none) %1) local_unnamed_addr #5 align 2 {
  %3 = tail call noundef i32 @_ZN5o3dgc16Arithmetic_Codec12stop_encoderEv(ptr noundef nonnull align 8 dereferenceable(44) %0)
  br label %4

4:                                                ; preds = %10, %2
  %.014 = phi i32 [ 0, %2 ], [ %12, %10 ]
  %.013 = phi i32 [ %3, %2 ], [ %11, %10 ]
  %5 = and i32 %.013, 127
  %.not = icmp ult i32 %.013, 128
  %6 = or disjoint i32 %5, 128
  %spec.select = select i1 %.not, i32 %5, i32 %6
  %7 = tail call i32 @putc(i32 noundef %spec.select, ptr noundef %1)
  %8 = icmp eq i32 %7, -1
  br i1 %8, label %9, label %10

9:                                                ; preds = %4
  tail call fastcc void @_ZN5o3dgcL8AC_ErrorEPKc(ptr noundef nonnull @.str.8) #16
  unreachable

10:                                               ; preds = %4
  %11 = lshr i32 %.013, 7
  %12 = add nuw nsw i32 %.014, 1
  br i1 %.not, label %13, label %4, !llvm.loop !17

13:                                               ; preds = %10
  %14 = load ptr, ptr %0, align 8
  %15 = zext i32 %3 to i64
  %16 = tail call i64 @fwrite(ptr noundef %14, i64 noundef 1, i64 noundef %15, ptr noundef %1)
  %.not17 = icmp eq i64 %16, %15
  br i1 %.not17, label %18, label %17

17:                                               ; preds = %13
  tail call fastcc void @_ZN5o3dgcL8AC_ErrorEPKc(ptr noundef nonnull @.str.8) #16
  unreachable

18:                                               ; preds = %13
  %19 = add i32 %12, %3
  ret i32 %19
}